   1              		.cpu cortex-m0
   2              		.fpu softvfp
   3              		.eabi_attribute 20, 1
   4              		.eabi_attribute 21, 1
   5              		.eabi_attribute 23, 3
   6              		.eabi_attribute 24, 1
   7              		.eabi_attribute 25, 1
   8              		.eabi_attribute 26, 1
   9              		.eabi_attribute 30, 6
  10              		.eabi_attribute 34, 0
  11              		.eabi_attribute 18, 4
  12              		.code	16
  13              		.file	"adc_data.c"
  14              		.text
  15              	.Ltext0:
  16              		.cfi_sections	.debug_frame
  17              		.global	__aeabi_i2d
  18              		.global	__aeabi_dmul
  19              		.global	__aeabi_ddiv
  20              		.global	__aeabi_d2f
  21              		.section	.text.vlotage_scaling,"ax",%progbits
  22              		.align	2
  23              		.global	vlotage_scaling
  24              		.code	16
  25              		.thumb_func
  27              	vlotage_scaling:
  28              	.LFB0:
  29              		.file 1 "../Sources/adc_data.c"
   1:../Sources/adc_data.c **** /*
   2:../Sources/adc_data.c ****  * adc_data.c
   3:../Sources/adc_data.c ****  *
   4:../Sources/adc_data.c ****  *  Created on: Jan 22, 2016
   5:../Sources/adc_data.c ****  *      Author: Skóra
   6:../Sources/adc_data.c ****  */
   7:../Sources/adc_data.c **** 
   8:../Sources/adc_data.c **** 
   9:../Sources/adc_data.c **** float vlotage_scaling(adc_results)
  10:../Sources/adc_data.c **** {
  30              		.loc 1 10 0
  31              		.cfi_startproc
  32 0000 90B5     		push	{r4, r7, lr}
  33              	.LCFI0:
  34              		.cfi_def_cfa_offset 12
  35              		.cfi_offset 4, -12
  36              		.cfi_offset 7, -8
  37              		.cfi_offset 14, -4
  38 0002 85B0     		sub	sp, sp, #20
  39              	.LCFI1:
  40              		.cfi_def_cfa_offset 32
  41 0004 00AF     		add	r7, sp, #0
  42              	.LCFI2:
  43              		.cfi_def_cfa_register 7
  44 0006 7860     		str	r0, [r7, #4]
  11:../Sources/adc_data.c **** 	float voltage;
  12:../Sources/adc_data.c **** 	voltage=adc_results*3.3/65536;
  45              		.loc 1 12 0
  46 0008 7868     		ldr	r0, [r7, #4]
  47 000a FFF7FEFF 		bl	__aeabi_i2d
  48 000e 031C     		mov	r3, r0
  49 0010 0C1C     		mov	r4, r1
  50 0012 181C     		mov	r0, r3
  51 0014 211C     		mov	r1, r4
  52 0016 0D4B     		ldr	r3, .L3+4
  53 0018 0B4A     		ldr	r2, .L3
  54 001a FFF7FEFF 		bl	__aeabi_dmul
  55 001e 031C     		mov	r3, r0
  56 0020 0C1C     		mov	r4, r1
  57 0022 181C     		mov	r0, r3
  58 0024 211C     		mov	r1, r4
  59 0026 0A4A     		ldr	r2, .L3+8
  60 0028 0A4B     		ldr	r3, .L3+12
  61 002a FFF7FEFF 		bl	__aeabi_ddiv
  62 002e 031C     		mov	r3, r0
  63 0030 0C1C     		mov	r4, r1
  64 0032 181C     		mov	r0, r3
  65 0034 211C     		mov	r1, r4
  66 0036 FFF7FEFF 		bl	__aeabi_d2f
  67 003a 031C     		add	r3, r0, #0
  68 003c FB60     		str	r3, [r7, #12]
  13:../Sources/adc_data.c **** 	return voltage;
  69              		.loc 1 13 0
  70 003e FB68     		ldr	r3, [r7, #12]
  14:../Sources/adc_data.c **** }
  71              		.loc 1 14 0
  72 0040 181C     		add	r0, r3, #0
  73 0042 BD46     		mov	sp, r7
  74 0044 05B0     		add	sp, sp, #20
  75              		@ sp needed for prologue
  76 0046 90BD     		pop	{r4, r7, pc}
  77              	.L4:
  78              		.align	3
  79              	.L3:
  80 0048 66666666 		.word	1717986918
  81 004c 66660A40 		.word	1074423398
  82 0050 00000000 		.word	0
  83 0054 0000F040 		.word	1089470464
  84              		.cfi_endproc
  85              	.LFE0:
  87              		.section	.text.copm_current,"ax",%progbits
  88              		.align	2
  89              		.global	copm_current
  90              		.code	16
  91              		.thumb_func
  93              	copm_current:
  94              	.LFB1:
  15:../Sources/adc_data.c **** 
  16:../Sources/adc_data.c **** float copm_current(vlotage1,vlotage2)
  17:../Sources/adc_data.c **** {
  95              		.loc 1 17 0
  96              		.cfi_startproc
  97 0000 90B5     		push	{r4, r7, lr}
  98              	.LCFI3:
  99              		.cfi_def_cfa_offset 12
 100              		.cfi_offset 4, -12
 101              		.cfi_offset 7, -8
 102              		.cfi_offset 14, -4
 103 0002 85B0     		sub	sp, sp, #20
 104              	.LCFI4:
 105              		.cfi_def_cfa_offset 32
 106 0004 00AF     		add	r7, sp, #0
 107              	.LCFI5:
 108              		.cfi_def_cfa_register 7
 109 0006 7860     		str	r0, [r7, #4]
 110 0008 3960     		str	r1, [r7]
  18:../Sources/adc_data.c **** 	float current;
  19:../Sources/adc_data.c **** 	current=0.02*(vlotage2-vlotage1);
 111              		.loc 1 19 0
 112 000a 3A68     		ldr	r2, [r7]
 113 000c 7B68     		ldr	r3, [r7, #4]
 114 000e D31A     		sub	r3, r2, r3
 115 0010 181C     		mov	r0, r3
 116 0012 FFF7FEFF 		bl	__aeabi_i2d
 117 0016 031C     		mov	r3, r0
 118 0018 0C1C     		mov	r4, r1
 119 001a 181C     		mov	r0, r3
 120 001c 211C     		mov	r1, r4
 121 001e 094B     		ldr	r3, .L7+4
 122 0020 074A     		ldr	r2, .L7
 123 0022 FFF7FEFF 		bl	__aeabi_dmul
 124 0026 031C     		mov	r3, r0
 125 0028 0C1C     		mov	r4, r1
 126 002a 181C     		mov	r0, r3
 127 002c 211C     		mov	r1, r4
 128 002e FFF7FEFF 		bl	__aeabi_d2f
 129 0032 031C     		add	r3, r0, #0
 130 0034 FB60     		str	r3, [r7, #12]
  20:../Sources/adc_data.c **** 	return current;
 131              		.loc 1 20 0
 132 0036 FB68     		ldr	r3, [r7, #12]
  21:../Sources/adc_data.c **** }
 133              		.loc 1 21 0
 134 0038 181C     		add	r0, r3, #0
 135 003a BD46     		mov	sp, r7
 136 003c 05B0     		add	sp, sp, #20
 137              		@ sp needed for prologue
 138 003e 90BD     		pop	{r4, r7, pc}
 139              	.L8:
 140              		.align	3
 141              	.L7:
 142 0040 7B14AE47 		.word	1202590843
 143 0044 E17A943F 		.word	1066695393
 144              		.cfi_endproc
 145              	.LFE1:
 147              		.global	__aeabi_i2f
 148              		.section	.text.copm_power,"ax",%progbits
 149              		.align	2
 150              		.global	copm_power
 151              		.code	16
 152              		.thumb_func
 154              	copm_power:
 155              	.LFB2:
  22:../Sources/adc_data.c **** 
  23:../Sources/adc_data.c **** float copm_power(current,voltage)
  24:../Sources/adc_data.c **** {
 156              		.loc 1 24 0
 157              		.cfi_startproc
 158 0000 80B5     		push	{r7, lr}
 159              	.LCFI6:
 160              		.cfi_def_cfa_offset 8
 161              		.cfi_offset 7, -8
 162              		.cfi_offset 14, -4
 163 0002 84B0     		sub	sp, sp, #16
 164              	.LCFI7:
 165              		.cfi_def_cfa_offset 24
 166 0004 00AF     		add	r7, sp, #0
 167              	.LCFI8:
 168              		.cfi_def_cfa_register 7
 169 0006 7860     		str	r0, [r7, #4]
 170 0008 3960     		str	r1, [r7]
  25:../Sources/adc_data.c **** 	float power;
  26:../Sources/adc_data.c **** 	power=current*voltage;
 171              		.loc 1 26 0
 172 000a 7B68     		ldr	r3, [r7, #4]
 173 000c 3A68     		ldr	r2, [r7]
 174 000e 5343     		mul	r3, r2
 175 0010 181C     		mov	r0, r3
 176 0012 FFF7FEFF 		bl	__aeabi_i2f
 177 0016 031C     		add	r3, r0, #0
 178 0018 FB60     		str	r3, [r7, #12]
  27:../Sources/adc_data.c **** 	return power;
 179              		.loc 1 27 0
 180 001a FB68     		ldr	r3, [r7, #12]
  28:../Sources/adc_data.c **** }
 181              		.loc 1 28 0
 182 001c 181C     		add	r0, r3, #0
 183 001e BD46     		mov	sp, r7
 184 0020 04B0     		add	sp, sp, #16
 185              		@ sp needed for prologue
 186 0022 80BD     		pop	{r7, pc}
 187              		.cfi_endproc
 188              	.LFE2:
 190              		.text
 191              	.Letext0: