   1              		.cpu cortex-m0
   2              		.fpu softvfp
   3              		.eabi_attribute 20, 1
   4              		.eabi_attribute 21, 1
   5              		.eabi_attribute 23, 3
   6              		.eabi_attribute 24, 1
   7              		.eabi_attribute 25, 1
   8              		.eabi_attribute 26, 1
   9              		.eabi_attribute 30, 6
  10              		.eabi_attribute 34, 0
  11              		.eabi_attribute 18, 4
  12              		.code	16
  13              		.file	"LEDgreen.c"
  14              		.text
  15              	.Ltext0:
  16              		.cfi_sections	.debug_frame
  17              		.section	.text.LEDgreen_Deinit,"ax",%progbits
  18              		.align	2
  19              		.global	LEDgreen_Deinit
  20              		.code	16
  21              		.thumb_func
  23              	LEDgreen_Deinit:
  24              	.LFB0:
  25              		.file 1 "../Generated_Code/LEDgreen.c"
   1:../Generated_Code/LEDgreen.c **** /* ###################################################################
   2:../Generated_Code/LEDgreen.c **** **     THIS COMPONENT MODULE IS GENERATED BY THE TOOL. DO NOT MODIFY IT.
   3:../Generated_Code/LEDgreen.c **** **     Filename    : LEDgreen.c
   4:../Generated_Code/LEDgreen.c **** **     Project     : ProcessorExpert
   5:../Generated_Code/LEDgreen.c **** **     Processor   : MKL25Z128VLK4
   6:../Generated_Code/LEDgreen.c **** **     Component   : LED
   7:../Generated_Code/LEDgreen.c **** **     Version     : Component 01.054, Driver 01.00, CPU db: 3.00.000
   8:../Generated_Code/LEDgreen.c **** **     Compiler    : GNU C Compiler
   9:../Generated_Code/LEDgreen.c **** **     Date/Time   : 2015-11-11, 15:28, # CodeGen: 16
  10:../Generated_Code/LEDgreen.c **** **     Abstract    :
  11:../Generated_Code/LEDgreen.c **** **          This component implements a universal driver for a single LED.
  12:../Generated_Code/LEDgreen.c **** **     Settings    :
  13:../Generated_Code/LEDgreen.c **** **          Component name                                 : LEDgreen
  14:../Generated_Code/LEDgreen.c **** **          Turned On with initialization                  : no
  15:../Generated_Code/LEDgreen.c **** **          HW Interface                                   : 
  16:../Generated_Code/LEDgreen.c **** **            On/Off                                       : Enabled
  17:../Generated_Code/LEDgreen.c **** **              Pin                                        : LEDpin
  18:../Generated_Code/LEDgreen.c **** **            PWM                                          : Disabled
  19:../Generated_Code/LEDgreen.c **** **            High Value means ON                          : no
  20:../Generated_Code/LEDgreen.c **** **          Shell                                          : Disabled
  21:../Generated_Code/LEDgreen.c **** **     Contents    :
  22:../Generated_Code/LEDgreen.c **** **         Init       - void LEDgreen_Init(void);
  23:../Generated_Code/LEDgreen.c **** **         Deinit     - void LEDgreen_Deinit(void);
  24:../Generated_Code/LEDgreen.c **** **         On         - void LEDgreen_On(void);
  25:../Generated_Code/LEDgreen.c **** **         Off        - void LEDgreen_Off(void);
  26:../Generated_Code/LEDgreen.c **** **         Neg        - void LEDgreen_Neg(void);
  27:../Generated_Code/LEDgreen.c **** **         Get        - byte LEDgreen_Get(void);
  28:../Generated_Code/LEDgreen.c **** **         Put        - void LEDgreen_Put(byte val);
  29:../Generated_Code/LEDgreen.c **** **         SetRatio16 - void LEDgreen_SetRatio16(word ratio);
  30:../Generated_Code/LEDgreen.c **** **
  31:../Generated_Code/LEDgreen.c **** **     License   :  Open Source (LGPL)
  32:../Generated_Code/LEDgreen.c **** **     Copyright : (c) Copyright Erich Styger, 2012, all rights reserved.
  33:../Generated_Code/LEDgreen.c **** **     Web: http://mcuoneclipse.com
  34:../Generated_Code/LEDgreen.c **** **     This an open source software implementing an LED driver using Processor Expert.
  35:../Generated_Code/LEDgreen.c **** **     This is a free software and is opened for education, research and commercial developments un
  36:../Generated_Code/LEDgreen.c **** **     * This is a free software and there is NO WARRANTY.
  37:../Generated_Code/LEDgreen.c **** **     * No restriction on use. You can use, modify and redistribute it for personal, non-profit or
  38:../Generated_Code/LEDgreen.c **** **     * Redistributions of source code must retain the above copyright notice.
  39:../Generated_Code/LEDgreen.c **** ** ###################################################################*/
  40:../Generated_Code/LEDgreen.c **** /*!
  41:../Generated_Code/LEDgreen.c **** ** @file LEDgreen.c
  42:../Generated_Code/LEDgreen.c **** ** @version 01.00
  43:../Generated_Code/LEDgreen.c **** ** @brief
  44:../Generated_Code/LEDgreen.c **** **          This component implements a universal driver for a single LED.
  45:../Generated_Code/LEDgreen.c **** */         
  46:../Generated_Code/LEDgreen.c **** /*!
  47:../Generated_Code/LEDgreen.c **** **  @addtogroup LEDgreen_module LEDgreen module documentation
  48:../Generated_Code/LEDgreen.c **** **  @{
  49:../Generated_Code/LEDgreen.c **** */         
  50:../Generated_Code/LEDgreen.c **** 
  51:../Generated_Code/LEDgreen.c **** /* MODULE LEDgreen. */
  52:../Generated_Code/LEDgreen.c **** 
  53:../Generated_Code/LEDgreen.c **** #include "LEDgreen.h"
  54:../Generated_Code/LEDgreen.c **** 
  55:../Generated_Code/LEDgreen.c **** /*
  56:../Generated_Code/LEDgreen.c **** ** ===================================================================
  57:../Generated_Code/LEDgreen.c **** **     Method      :  LEDgreen_On (component LED)
  58:../Generated_Code/LEDgreen.c **** **     Description :
  59:../Generated_Code/LEDgreen.c **** **         This turns the LED on.
  60:../Generated_Code/LEDgreen.c **** **     Parameters  : None
  61:../Generated_Code/LEDgreen.c **** **     Returns     : Nothing
  62:../Generated_Code/LEDgreen.c **** ** ===================================================================
  63:../Generated_Code/LEDgreen.c **** */
  64:../Generated_Code/LEDgreen.c **** /*
  65:../Generated_Code/LEDgreen.c **** ** ===================================================================
  66:../Generated_Code/LEDgreen.c **** **     Method      :  LEDgreen_Off (component LED)
  67:../Generated_Code/LEDgreen.c **** **     Description :
  68:../Generated_Code/LEDgreen.c **** **         This turns the LED off.
  69:../Generated_Code/LEDgreen.c **** **     Parameters  : None
  70:../Generated_Code/LEDgreen.c **** **     Returns     : Nothing
  71:../Generated_Code/LEDgreen.c **** ** ===================================================================
  72:../Generated_Code/LEDgreen.c **** */
  73:../Generated_Code/LEDgreen.c **** /*
  74:../Generated_Code/LEDgreen.c **** void LEDgreen_Off(void)
  75:../Generated_Code/LEDgreen.c **** {
  76:../Generated_Code/LEDgreen.c ****   *** This method is implemented as macro in the header file
  77:../Generated_Code/LEDgreen.c **** }
  78:../Generated_Code/LEDgreen.c **** */
  79:../Generated_Code/LEDgreen.c **** 
  80:../Generated_Code/LEDgreen.c **** /*
  81:../Generated_Code/LEDgreen.c **** ** ===================================================================
  82:../Generated_Code/LEDgreen.c **** **     Method      :  LEDgreen_Neg (component LED)
  83:../Generated_Code/LEDgreen.c **** **     Description :
  84:../Generated_Code/LEDgreen.c **** **         This negates/toggles the LED
  85:../Generated_Code/LEDgreen.c **** **     Parameters  : None
  86:../Generated_Code/LEDgreen.c **** **     Returns     : Nothing
  87:../Generated_Code/LEDgreen.c **** ** ===================================================================
  88:../Generated_Code/LEDgreen.c **** */
  89:../Generated_Code/LEDgreen.c **** /*
  90:../Generated_Code/LEDgreen.c **** void LEDgreen_Neg(void)
  91:../Generated_Code/LEDgreen.c **** {
  92:../Generated_Code/LEDgreen.c ****   *** This method is implemented as macro in the header file
  93:../Generated_Code/LEDgreen.c **** }
  94:../Generated_Code/LEDgreen.c **** */
  95:../Generated_Code/LEDgreen.c **** 
  96:../Generated_Code/LEDgreen.c **** /*
  97:../Generated_Code/LEDgreen.c **** ** ===================================================================
  98:../Generated_Code/LEDgreen.c **** **     Method      :  LEDgreen_Get (component LED)
  99:../Generated_Code/LEDgreen.c **** **     Description :
 100:../Generated_Code/LEDgreen.c **** **         This returns logical 1 in case the LED is on, 0 otherwise.
 101:../Generated_Code/LEDgreen.c **** **     Parameters  : None
 102:../Generated_Code/LEDgreen.c **** **     Returns     :
 103:../Generated_Code/LEDgreen.c **** **         ---             - Status of the LED (on or off)
 104:../Generated_Code/LEDgreen.c **** ** ===================================================================
 105:../Generated_Code/LEDgreen.c **** */
 106:../Generated_Code/LEDgreen.c **** /*
 107:../Generated_Code/LEDgreen.c **** byte LEDgreen_Get(void)
 108:../Generated_Code/LEDgreen.c **** {
 109:../Generated_Code/LEDgreen.c ****   *** This method is implemented as macro in the header file
 110:../Generated_Code/LEDgreen.c **** }
 111:../Generated_Code/LEDgreen.c **** */
 112:../Generated_Code/LEDgreen.c **** 
 113:../Generated_Code/LEDgreen.c **** /*
 114:../Generated_Code/LEDgreen.c **** ** ===================================================================
 115:../Generated_Code/LEDgreen.c **** **     Method      :  LEDgreen_Init (component LED)
 116:../Generated_Code/LEDgreen.c **** **     Description :
 117:../Generated_Code/LEDgreen.c **** **         Performs the LED driver initialization.
 118:../Generated_Code/LEDgreen.c **** **     Parameters  : None
 119:../Generated_Code/LEDgreen.c **** **     Returns     : Nothing
 120:../Generated_Code/LEDgreen.c **** ** ===================================================================
 121:../Generated_Code/LEDgreen.c **** */
 122:../Generated_Code/LEDgreen.c **** /*
 123:../Generated_Code/LEDgreen.c **** void LEDgreen_Init(void)
 124:../Generated_Code/LEDgreen.c **** {
 125:../Generated_Code/LEDgreen.c ****   *** This method is implemented as macro in the header file
 126:../Generated_Code/LEDgreen.c **** }
 127:../Generated_Code/LEDgreen.c **** */
 128:../Generated_Code/LEDgreen.c **** 
 129:../Generated_Code/LEDgreen.c **** /*
 130:../Generated_Code/LEDgreen.c **** ** ===================================================================
 131:../Generated_Code/LEDgreen.c **** **     Method      :  LEDgreen_Put (component LED)
 132:../Generated_Code/LEDgreen.c **** **     Description :
 133:../Generated_Code/LEDgreen.c **** **         Turns the LED on or off.
 134:../Generated_Code/LEDgreen.c **** **     Parameters  :
 135:../Generated_Code/LEDgreen.c **** **         NAME            - DESCRIPTION
 136:../Generated_Code/LEDgreen.c **** **         val             - value to define if the LED has to be on or
 137:../Generated_Code/LEDgreen.c **** **                           off.
 138:../Generated_Code/LEDgreen.c **** **     Returns     : Nothing
 139:../Generated_Code/LEDgreen.c **** ** ===================================================================
 140:../Generated_Code/LEDgreen.c **** */
 141:../Generated_Code/LEDgreen.c **** /*
 142:../Generated_Code/LEDgreen.c **** void LEDgreen_Put(byte val)
 143:../Generated_Code/LEDgreen.c **** {
 144:../Generated_Code/LEDgreen.c ****   *** This method is implemented as macro in the header file
 145:../Generated_Code/LEDgreen.c **** }
 146:../Generated_Code/LEDgreen.c **** */
 147:../Generated_Code/LEDgreen.c **** 
 148:../Generated_Code/LEDgreen.c **** /*
 149:../Generated_Code/LEDgreen.c **** ** ===================================================================
 150:../Generated_Code/LEDgreen.c **** **     Method      :  LEDgreen_Deinit (component LED)
 151:../Generated_Code/LEDgreen.c **** **     Description :
 152:../Generated_Code/LEDgreen.c **** **         Deinitializes the driver
 153:../Generated_Code/LEDgreen.c **** **     Parameters  : None
 154:../Generated_Code/LEDgreen.c **** **     Returns     : Nothing
 155:../Generated_Code/LEDgreen.c **** ** ===================================================================
 156:../Generated_Code/LEDgreen.c **** */
 157:../Generated_Code/LEDgreen.c **** void LEDgreen_Deinit(void)
 158:../Generated_Code/LEDgreen.c **** {
  26              		.loc 1 158 0
  27              		.cfi_startproc
  28 0000 80B5     		push	{r7, lr}
  29              	.LCFI0:
  30              		.cfi_def_cfa_offset 8
  31              		.cfi_offset 7, -8
  32              		.cfi_offset 14, -4
  33 0002 00AF     		add	r7, sp, #0
  34              	.LCFI1:
  35              		.cfi_def_cfa_register 7
 159:../Generated_Code/LEDgreen.c **** }
  36              		.loc 1 159 0
  37 0004 BD46     		mov	sp, r7
  38              		@ sp needed for prologue
  39 0006 80BD     		pop	{r7, pc}
  40              		.cfi_endproc
  41              	.LFE0:
  43              		.section	.text.LEDgreen_SetRatio16,"ax",%progbits
  44              		.align	2
  45              		.global	LEDgreen_SetRatio16
  46              		.code	16
  47              		.thumb_func
  49              	LEDgreen_SetRatio16:
  50              	.LFB1:
 160:../Generated_Code/LEDgreen.c **** 
 161:../Generated_Code/LEDgreen.c **** /*
 162:../Generated_Code/LEDgreen.c **** ** ===================================================================
 163:../Generated_Code/LEDgreen.c **** **     Method      :  LEDgreen_SetRatio16 (component LED)
 164:../Generated_Code/LEDgreen.c **** **     Description :
 165:../Generated_Code/LEDgreen.c **** **         Method to specify the duty cycle. If using a PWM pin, this
 166:../Generated_Code/LEDgreen.c **** **         means the duty cycle is set. For On/off pins, values smaller
 167:../Generated_Code/LEDgreen.c **** **         0x7FFF means off, while values greater means on.
 168:../Generated_Code/LEDgreen.c **** **     Parameters  :
 169:../Generated_Code/LEDgreen.c **** **         NAME            - DESCRIPTION
 170:../Generated_Code/LEDgreen.c **** **         ratio           - Ratio value, where 0 means 'off' and
 171:../Generated_Code/LEDgreen.c **** **                           0xffff means 'on'
 172:../Generated_Code/LEDgreen.c **** **     Returns     : Nothing
 173:../Generated_Code/LEDgreen.c **** ** ===================================================================
 174:../Generated_Code/LEDgreen.c **** */
 175:../Generated_Code/LEDgreen.c **** void LEDgreen_SetRatio16(word ratio)
 176:../Generated_Code/LEDgreen.c **** {
  51              		.loc 1 176 0
  52              		.cfi_startproc
  53 0000 80B5     		push	{r7, lr}
  54              	.LCFI2:
  55              		.cfi_def_cfa_offset 8
  56              		.cfi_offset 7, -8
  57              		.cfi_offset 14, -4
  58 0002 82B0     		sub	sp, sp, #8
  59              	.LCFI3:
  60              		.cfi_def_cfa_offset 16
  61 0004 00AF     		add	r7, sp, #0
  62              	.LCFI4:
  63              		.cfi_def_cfa_register 7
  64 0006 021C     		mov	r2, r0
  65 0008 BB1D     		add	r3, r7, #6
  66 000a 1A80     		strh	r2, [r3]
 177:../Generated_Code/LEDgreen.c ****   /* on/off LED: binary on or off */
 178:../Generated_Code/LEDgreen.c ****   if (ratio<(0xffff/2)) {
  67              		.loc 1 178 0
  68 000c BB1D     		add	r3, r7, #6
  69 000e 1A88     		ldrh	r2, [r3]
  70 0010 084B     		ldr	r3, .L5
  71 0012 9A42     		cmp	r2, r3
  72 0014 05D8     		bhi	.L3
 179:../Generated_Code/LEDgreen.c ****     LEDgreen_Off();
  73              		.loc 1 179 0
  74 0016 084B     		ldr	r3, .L5+4
  75 0018 DB68     		ldr	r3, [r3, #12]
  76 001a 181C     		mov	r0, r3
  77 001c FFF7FEFF 		bl	BitIoLdd1_SetVal
  78 0020 04E0     		b	.L2
  79              	.L3:
 180:../Generated_Code/LEDgreen.c ****   } else {
 181:../Generated_Code/LEDgreen.c ****     LEDgreen_On();
  80              		.loc 1 181 0
  81 0022 054B     		ldr	r3, .L5+4
  82 0024 DB68     		ldr	r3, [r3, #12]
  83 0026 181C     		mov	r0, r3
  84 0028 FFF7FEFF 		bl	BitIoLdd1_ClrVal
  85              	.L2:
 182:../Generated_Code/LEDgreen.c ****   }
 183:../Generated_Code/LEDgreen.c **** }
  86              		.loc 1 183 0
  87 002c BD46     		mov	sp, r7
  88 002e 02B0     		add	sp, sp, #8
  89              		@ sp needed for prologue
  90 0030 80BD     		pop	{r7, pc}
  91              	.L6:
  92 0032 C046     		.align	2
  93              	.L5:
  94 0034 FE7F0000 		.word	32766
  95 0038 00000000 		.word	PE_LDD_DeviceDataList
  96              		.cfi_endproc
  97              	.LFE1:
  99              		.text
 100              	.Letext0:
 101              		.file 2 "../Generated_Code/PE_Types.h"